; Function Attrs: mustprogress uwtable
define hidden void @_ZN3ue218UTF8ComponentClass21ensureThreeDotTrailerERNS_18GlushkovBuildStateE(ptr noundef nonnull align 8 dereferenceable(208) %this, ptr noundef nonnull align 8 dereferenceable(8) %bs) local_unnamed_addr #1 align 2 {
entry:
  %ref.tmp.i = alloca %"class.ue2::CharReach", align 8
  %ref.tmp = alloca %"class.ue2::CharReach", align 8
  %vtable = load ptr, ptr %bs, align 8
  %vfn = getelementptr inbounds i8, ptr %vtable, i64 16
  %0 = load ptr, ptr %vfn, align 8
  %call = tail call noundef nonnull align 8 dereferenceable(8) ptr %0(ptr noundef nonnull align 8 dereferenceable(8) %bs)
  %three_dot_trailer = getelementptr inbounds i8, ptr %this, i64 140
  %1 = load i32, ptr %three_dot_trailer, align 4
  %2 = load i32, ptr @_ZN3ue218GlushkovBuildState17POS_UNINITIALIZEDE, align 4
  %cmp.not = icmp eq i32 %1, %2
  br i1 %cmp.not, label %if.end, label %return

if.end:                                           ; preds = %entry
  call void @llvm.lifetime.start.p0(i64 32, ptr nonnull %ref.tmp.i)
  %vtable.i = load ptr, ptr %bs, align 8
  %vfn.i = getelementptr inbounds i8, ptr %vtable.i, i64 16
  %3 = load ptr, ptr %vfn.i, align 8
  %call.i = tail call noundef nonnull align 8 dereferenceable(8) ptr %3(ptr noundef nonnull align 8 dereferenceable(8) %bs)
  %two_dot_trailer.i = getelementptr inbounds i8, ptr %this, i64 136
  %4 = load i32, ptr %two_dot_trailer.i, align 8
  %cmp.not.i = icmp eq i32 %4, %1
  br i1 %cmp.not.i, label %if.end.i, label %_ZN3ue218UTF8ComponentClass19ensureTwoDotTrailerERNS_18GlushkovBuildStateE.exit

if.end.i:                                         ; preds = %if.end
  tail call void @_ZN3ue218UTF8ComponentClass16ensureDotTrailerERNS_18GlushkovBuildStateE(ptr noundef nonnull align 8 dereferenceable(208) %this, ptr noundef nonnull align 8 dereferenceable(8) %bs)
  %vtable2.i = load ptr, ptr %call.i, align 8
  %vfn3.i = getelementptr inbounds i8, ptr %vtable2.i, i64 16
  %5 = load ptr, ptr %vfn3.i, align 8
  %call4.i = tail call noundef i32 %5(ptr noundef nonnull align 8 dereferenceable(8) %call.i, i64 noundef 1)
  store i32 %call4.i, ptr %two_dot_trailer.i, align 8
  call void @llvm.memset.p0.i64(ptr noundef nonnull align 8 dereferenceable(32) %ref.tmp.i, i8 0, i64 32, i1 false)
  %arrayidx.i.i.i.i.i.i = getelementptr inbounds i8, ptr %ref.tmp.i, i64 16
  store i64 -1, ptr %arrayidx.i.i.i.i.i.i, align 8
  %vtable7.i = load ptr, ptr %call.i, align 8
  %vfn8.i = getelementptr inbounds i8, ptr %vtable7.i, i64 72
  %6 = load ptr, ptr %vfn8.i, align 8
  call void %6(ptr noundef nonnull align 8 dereferenceable(8) %call.i, i32 noundef %call4.i, ptr noundef nonnull align 8 dereferenceable(32) %ref.tmp.i)
  %7 = load i32, ptr %two_dot_trailer.i, align 8
  %one_dot_trailer.i = getelementptr inbounds i8, ptr %this, i64 132
  %8 = load i32, ptr %one_dot_trailer.i, align 4
  %vtable10.i = load ptr, ptr %bs, align 8
  %vfn11.i = getelementptr inbounds i8, ptr %vtable10.i, i64 48
  %9 = load ptr, ptr %vfn11.i, align 8
  call void %9(ptr noundef nonnull align 8 dereferenceable(8) %bs, i32 noundef %7, i32 noundef %8)
  br label %_ZN3ue218UTF8ComponentClass19ensureTwoDotTrailerERNS_18GlushkovBuildStateE.exit

_ZN3ue218UTF8ComponentClass19ensureTwoDotTrailerERNS_18GlushkovBuildStateE.exit: ; preds = %if.end, %if.end.i
  call void @llvm.lifetime.end.p0(i64 32, ptr nonnull %ref.tmp.i)
  %vtable2 = load ptr, ptr %call, align 8
  %vfn3 = getelementptr inbounds i8, ptr %vtable2, i64 16
  %10 = load ptr, ptr %vfn3, align 8
  %call4 = call noundef i32 %10(ptr noundef nonnull align 8 dereferenceable(8) %call, i64 noundef 1)
  store i32 %call4, ptr %three_dot_trailer, align 4
  call void @llvm.memset.p0.i64(ptr noundef nonnull align 8 dereferenceable(32) %ref.tmp, i8 0, i64 32, i1 false)
  %arrayidx.i.i.i.i.i = getelementptr inbounds i8, ptr %ref.tmp, i64 16
  store i64 -1, ptr %arrayidx.i.i.i.i.i, align 8
  %vtable7 = load ptr, ptr %call, align 8
  %vfn8 = getelementptr inbounds i8, ptr %vtable7, i64 72
  %11 = load ptr, ptr %vfn8, align 8
  call void %11(ptr noundef nonnull align 8 dereferenceable(8) %call, i32 noundef %call4, ptr noundef nonnull align 8 dereferenceable(32) %ref.tmp)
  %12 = load i32, ptr %three_dot_trailer, align 4
  %13 = load i32, ptr %two_dot_trailer.i, align 8
  %vtable10 = load ptr, ptr %bs, align 8
  %vfn11 = getelementptr inbounds i8, ptr %vtable10, i64 48
  %14 = load ptr, ptr %vfn11, align 8
  call void %14(ptr noundef nonnull align 8 dereferenceable(8) %bs, i32 noundef %12, i32 noundef %13)
  br label %return

return:                                           ; preds = %entry, %_ZN3ue218UTF8ComponentClass19ensureTwoDotTrailerERNS_18GlushkovBuildStateE.exit
  ret void
}